; Function Attrs: nounwind uwtable
define hidden noundef i32 @dom_parent_node_last_element_child_read(ptr noundef %0, ptr noundef %1) local_unnamed_addr #0 {
  %3 = tail call ptr @dom_object_get_node(ptr noundef %0) #3
  %4 = icmp eq ptr %3, null
  br i1 %4, label %5, label %6

5:                                                ; preds = %2
  tail call void @php_dom_throw_error(i32 noundef 11, i32 noundef 1) #3
  br label %17

6:                                                ; preds = %2
  %7 = tail call i32 @dom_node_children_valid(ptr noundef nonnull %3) #3
  %8 = icmp eq i32 %7, 0
  br i1 %8, label %9, label %.loopexit

9:                                                ; preds = %6
  %10 = getelementptr inbounds i8, ptr %3, i64 32
  %.019 = load ptr, ptr %10, align 8
  %.not20 = icmp eq ptr %.019, null
  br i1 %.not20, label %.loopexit, label %.lr.ph

.lr.ph:                                           ; preds = %9, %13
  %.021 = phi ptr [ %.0, %13 ], [ %.019, %9 ]
  %11 = getelementptr inbounds i8, ptr %.021, i64 8
  %12 = load i32, ptr %11, align 8
  %.not14 = icmp eq i32 %12, 1
  br i1 %.not14, label %.critedge, label %13

13:                                               ; preds = %.lr.ph
  %14 = getelementptr inbounds i8, ptr %.021, i64 56
  %.0 = load ptr, ptr %14, align 8
  %.not = icmp eq ptr %.0, null
  br i1 %.not, label %.loopexit, label %.lr.ph

.loopexit:                                        ; preds = %13, %9, %6
  %15 = getelementptr inbounds i8, ptr %1, i64 8
  store i32 1, ptr %15, align 8
  br label %17

.critedge:                                        ; preds = %.lr.ph
  %16 = tail call zeroext i1 @php_dom_create_object(ptr noundef nonnull %.021, ptr noundef %1, ptr noundef %0) #3
  br label %17

17:                                               ; preds = %.critedge, %.loopexit, %5
  %.012 = phi i32 [ -1, %5 ], [ 0, %.critedge ], [ 0, %.loopexit ]
  ret i32 %.012
}